target datalayout = "e-m:e-p270:32:32-p271:32:32-p272:64:64-i64:64-i128:128-f80:128-n8:16:32:64-S128"
target triple = "x86_64-pc-linux-gnu"

%struct.Rwr_Man_t_ = type { i32, ptr, ptr, ptr, ptr, ptr, ptr, ptr, ptr, ptr, ptr, ptr, i32, i32, i32, i32, i32, ptr, ptr, ptr, ptr, ptr, i32, i32, i32, i32, i32, [222 x i32], i32, i32, i32, i64, i64, i64, i64, i64, i64, i64 }
%struct.Vec_Ptr_t_ = type { i32, i32, ptr }
%struct.Rwr_Node_t_ = type <{ i32, i32, i16, i16, i16, i32, [6 x i8], ptr, ptr, ptr }>
%struct.timespec = type { i64, i64 }

@.str.7 = private unnamed_addr constant [35 x i8] c"The number of nodes saved = %d.   \00", align 1
@.str.8 = private unnamed_addr constant [5 x i8] c"%s =\00", align 1
@.str.9 = private unnamed_addr constant [7 x i8] c"Saving\00", align 1
@.str.10 = private unnamed_addr constant [11 x i8] c"%9.2f sec\0A\00", align 1
@.str.14 = private unnamed_addr constant [3 x i8] c"wb\00", align 1

; Function Attrs: inlinehint nounwind uwtable
define internal i32 @Rwr_IsComplement(ptr noundef %0) #4 {
  %2 = alloca ptr, align 8
  store ptr %0, ptr %2, align 8, !tbaa !28
  %3 = load ptr, ptr %2, align 8, !tbaa !28
  %4 = ptrtoint ptr %3 to i64
  %5 = and i64 %4, 1
  %6 = trunc i64 %5 to i32
  ret i32 %6
}

; Function Attrs: inlinehint nounwind uwtable
define internal ptr @Rwr_Regular(ptr noundef %0) #4 {
  %2 = alloca ptr, align 8
  store ptr %0, ptr %2, align 8, !tbaa !28
  %3 = load ptr, ptr %2, align 8, !tbaa !28
  %4 = ptrtoint ptr %3 to i64
  %5 = and i64 %4, -2
  %6 = inttoptr i64 %5 to ptr
  ret ptr %6
}

; Function Attrs: inlinehint nounwind uwtable
define internal i64 @Abc_Clock() #4 {
  %1 = alloca i64, align 8
  %2 = alloca %struct.timespec, align 8
  %3 = alloca i32, align 4
  %4 = alloca i64, align 8
  call void @llvm.lifetime.start.p0(i64 16, ptr %2) #9
  %5 = call i32 @clock_gettime(i32 noundef 1, ptr noundef %2) #9
  %6 = icmp slt i32 %5, 0
  br i1 %6, label %7, label %8

7:                                                ; preds = %0
  store i64 -1, ptr %1, align 8
  store i32 1, ptr %3, align 4
  br label %19

8:                                                ; preds = %0
  call void @llvm.lifetime.start.p0(i64 8, ptr %4) #9
  %9 = getelementptr inbounds nuw %struct.timespec, ptr %2, i32 0, i32 0
  %10 = load i64, ptr %9, align 8, !tbaa !51
  %11 = mul nsw i64 %10, 1000000
  store i64 %11, ptr %4, align 8, !tbaa !8
  %12 = getelementptr inbounds nuw %struct.timespec, ptr %2, i32 0, i32 1
  %13 = load i64, ptr %12, align 8, !tbaa !53
  %14 = mul nsw i64 %13, 1000000
  %15 = sdiv i64 %14, 1000000000
  %16 = load i64, ptr %4, align 8, !tbaa !8
  %17 = add nsw i64 %16, %15
  store i64 %17, ptr %4, align 8, !tbaa !8
  %18 = load i64, ptr %4, align 8, !tbaa !8
  store i64 %18, ptr %1, align 8
  store i32 1, ptr %3, align 4
  call void @llvm.lifetime.end.p0(i64 8, ptr %4) #9
  br label %19

19:                                               ; preds = %8, %7
  call void @llvm.lifetime.end.p0(i64 16, ptr %2) #9
  %20 = load i64, ptr %1, align 8
  ret i64 %20
}

; Function Attrs: nounwind uwtable
define void @Rwr_ManWriteToFile(ptr noundef %0, ptr noundef %1) #0 {
  %3 = alloca ptr, align 8
  %4 = alloca ptr, align 8
  %5 = alloca ptr, align 8
  %6 = alloca ptr, align 8
  %7 = alloca ptr, align 8
  %8 = alloca i32, align 4
  %9 = alloca i32, align 4
  %10 = alloca i64, align 8
  store ptr %0, ptr %3, align 8, !tbaa !3
  store ptr %1, ptr %4, align 8, !tbaa !37
  call void @llvm.lifetime.start.p0(i64 8, ptr %5) #9
  call void @llvm.lifetime.start.p0(i64 8, ptr %6) #9
  call void @llvm.lifetime.start.p0(i64 8, ptr %7) #9
  call void @llvm.lifetime.start.p0(i64 4, ptr %8) #9
  call void @llvm.lifetime.start.p0(i64 4, ptr %9) #9
  call void @llvm.lifetime.start.p0(i64 8, ptr %10) #9
  %11 = call i64 @Abc_Clock()
  store i64 %11, ptr %10, align 8, !tbaa !8
  %12 = load ptr, ptr %3, align 8, !tbaa !3
  %13 = getelementptr inbounds nuw %struct.Rwr_Man_t_, ptr %12, i32 0, i32 8
  %14 = load ptr, ptr %13, align 8, !tbaa !10
  %15 = getelementptr inbounds nuw %struct.Vec_Ptr_t_, ptr %14, i32 0, i32 1
  %16 = load i32, ptr %15, align 4, !tbaa !21
  %17 = sub nsw i32 %16, 5
  store i32 %17, ptr %9, align 4, !tbaa !23
  %18 = load i32, ptr %9, align 4, !tbaa !23
  %19 = mul nsw i32 %18, 2
  %20 = sext i32 %19 to i64
  %21 = mul i64 4, %20
  %22 = call noalias ptr @malloc(i64 noundef %21) #11
  store ptr %22, ptr %7, align 8, !tbaa !42
  store i32 0, ptr %8, align 4, !tbaa !23
  br label %23

23:                                               ; preds = %93, %2
  %24 = load i32, ptr %8, align 4, !tbaa !23
  %25 = load i32, ptr %9, align 4, !tbaa !23
  %26 = icmp slt i32 %24, %25
  br i1 %26, label %27, label %96

27:                                               ; preds = %23
  %28 = load ptr, ptr %3, align 8, !tbaa !3
  %29 = getelementptr inbounds nuw %struct.Rwr_Man_t_, ptr %28, i32 0, i32 8
  %30 = load ptr, ptr %29, align 8, !tbaa !10
  %31 = getelementptr inbounds nuw %struct.Vec_Ptr_t_, ptr %30, i32 0, i32 2
  %32 = load ptr, ptr %31, align 8, !tbaa !26
  %33 = load i32, ptr %8, align 4, !tbaa !23
  %34 = add nsw i32 %33, 5
  %35 = sext i32 %34 to i64
  %36 = getelementptr inbounds ptr, ptr %32, i64 %35
  %37 = load ptr, ptr %36, align 8, !tbaa !27
  store ptr %37, ptr %6, align 8, !tbaa !28
  %38 = load ptr, ptr %6, align 8, !tbaa !28
  %39 = getelementptr inbounds nuw %struct.Rwr_Node_t_, ptr %38, i32 0, i32 7
  %40 = load ptr, ptr %39, align 8, !tbaa !30
  %41 = call ptr @Rwr_Regular(ptr noundef %40)
  %42 = getelementptr inbounds nuw %struct.Rwr_Node_t_, ptr %41, i32 0, i32 0
  %43 = load i32, ptr %42, align 8, !tbaa !33
  %44 = shl i32 %43, 1
  %45 = load ptr, ptr %6, align 8, !tbaa !28
  %46 = getelementptr inbounds nuw %struct.Rwr_Node_t_, ptr %45, i32 0, i32 7
  %47 = load ptr, ptr %46, align 8, !tbaa !30
  %48 = call i32 @Rwr_IsComplement(ptr noundef %47)
  %49 = or i32 %44, %48
  %50 = load ptr, ptr %7, align 8, !tbaa !42
  %51 = load i32, ptr %8, align 4, !tbaa !23
  %52 = mul nsw i32 2, %51
  %53 = add nsw i32 %52, 0
  %54 = sext i32 %53 to i64
  %55 = getelementptr inbounds i32, ptr %50, i64 %54
  store i32 %49, ptr %55, align 4, !tbaa !23
  %56 = load ptr, ptr %6, align 8, !tbaa !28
  %57 = getelementptr inbounds nuw %struct.Rwr_Node_t_, ptr %56, i32 0, i32 8
  %58 = load ptr, ptr %57, align 8, !tbaa !34
  %59 = call ptr @Rwr_Regular(ptr noundef %58)
  %60 = getelementptr inbounds nuw %struct.Rwr_Node_t_, ptr %59, i32 0, i32 0
  %61 = load i32, ptr %60, align 8, !tbaa !33
  %62 = shl i32 %61, 1
  %63 = load ptr, ptr %6, align 8, !tbaa !28
  %64 = getelementptr inbounds nuw %struct.Rwr_Node_t_, ptr %63, i32 0, i32 8
  %65 = load ptr, ptr %64, align 8, !tbaa !34
  %66 = call i32 @Rwr_IsComplement(ptr noundef %65)
  %67 = or i32 %62, %66
  %68 = load ptr, ptr %7, align 8, !tbaa !42
  %69 = load i32, ptr %8, align 4, !tbaa !23
  %70 = mul nsw i32 2, %69
  %71 = add nsw i32 %70, 1
  %72 = sext i32 %71 to i64
  %73 = getelementptr inbounds i32, ptr %68, i64 %72
  store i32 %67, ptr %73, align 4, !tbaa !23
  %74 = load ptr, ptr %7, align 8, !tbaa !42
  %75 = load i32, ptr %8, align 4, !tbaa !23
  %76 = mul nsw i32 2, %75
  %77 = add nsw i32 %76, 0
  %78 = sext i32 %77 to i64
  %79 = getelementptr inbounds i32, ptr %74, i64 %78
  %80 = load i32, ptr %79, align 4, !tbaa !23
  %81 = shl i32 %80, 1
  %82 = load ptr, ptr %6, align 8, !tbaa !28
  %83 = getelementptr inbounds nuw %struct.Rwr_Node_t_, ptr %82, i32 0, i32 5
  %84 = load i32, ptr %83, align 2
  %85 = lshr i32 %84, 31
  %86 = or i32 %81, %85
  %87 = load ptr, ptr %7, align 8, !tbaa !42
  %88 = load i32, ptr %8, align 4, !tbaa !23
  %89 = mul nsw i32 2, %88
  %90 = add nsw i32 %89, 0
  %91 = sext i32 %90 to i64
  %92 = getelementptr inbounds i32, ptr %87, i64 %91
  store i32 %86, ptr %92, align 4, !tbaa !23
  br label %93

93:                                               ; preds = %27
  %94 = load i32, ptr %8, align 4, !tbaa !23
  %95 = add nsw i32 %94, 1
  store i32 %95, ptr %8, align 4, !tbaa !23
  br label %23, !llvm.loop !44

96:                                               ; preds = %23
  %97 = load ptr, ptr %4, align 8, !tbaa !37
  %98 = call noalias ptr @fopen(ptr noundef %97, ptr noundef @.str.14)
  store ptr %98, ptr %5, align 8, !tbaa !24
  %99 = load ptr, ptr %5, align 8, !tbaa !24
  %100 = call i64 @fwrite(ptr noundef %9, i64 noundef 4, i64 noundef 1, ptr noundef %99)
  %101 = load ptr, ptr %7, align 8, !tbaa !42
  %102 = load i32, ptr %9, align 4, !tbaa !23
  %103 = mul nsw i32 %102, 2
  %104 = sext i32 %103 to i64
  %105 = load ptr, ptr %5, align 8, !tbaa !24
  %106 = call i64 @fwrite(ptr noundef %101, i64 noundef 4, i64 noundef %104, ptr noundef %105)
  %107 = load ptr, ptr %7, align 8, !tbaa !42
  %108 = icmp ne ptr %107, null
  br i1 %108, label %109, label %111

109:                                              ; preds = %96
  %110 = load ptr, ptr %7, align 8, !tbaa !42
  call void @free(ptr noundef %110) #9
  store ptr null, ptr %7, align 8, !tbaa !42
  br label %112

111:                                              ; preds = %96
  br label %112

112:                                              ; preds = %111, %109
  %113 = load ptr, ptr %5, align 8, !tbaa !24
  %114 = call i32 @fclose(ptr noundef %113)
  %115 = load i32, ptr %9, align 4, !tbaa !23
  %116 = call i32 (ptr, ...) @printf(ptr noundef @.str.7, i32 noundef %115)
  call void (i32, ptr, ...) @Abc_Print(i32 noundef 1, ptr noundef @.str.8, ptr noundef @.str.9)
  %117 = call i64 @Abc_Clock()
  %118 = load i64, ptr %10, align 8, !tbaa !8
  %119 = sub nsw i64 %117, %118
  %120 = sitofp i64 %119 to double
  %121 = fmul double 1.000000e+00, %120
  %122 = fdiv double %121, 1.000000e+06
  call void (i32, ptr, ...) @Abc_Print(i32 noundef 1, ptr noundef @.str.10, double noundef %122)
  call void @llvm.lifetime.end.p0(i64 8, ptr %10) #9
  call void @llvm.lifetime.end.p0(i64 4, ptr %9) #9
  call void @llvm.lifetime.end.p0(i64 4, ptr %8) #9
  call void @llvm.lifetime.end.p0(i64 8, ptr %7) #9
  call void @llvm.lifetime.end.p0(i64 8, ptr %6) #9
  call void @llvm.lifetime.end.p0(i64 8, ptr %5) #9
  ret void
}