; Function Attrs: nounwind uwtable
define void @Rwr_ManWriteToFile(ptr noundef readonly captures(none) %0, ptr noundef readonly captures(none) %1) local_unnamed_addr #0 {
  %3 = alloca %struct.timespec, align 8
  %4 = alloca %struct.timespec, align 8
  %5 = alloca i32, align 4
  call void @llvm.lifetime.start.p0(i64 4, ptr nonnull %5) #15
  call void @llvm.lifetime.start.p0(i64 16, ptr nonnull %4) #15
  %6 = call i32 @clock_gettime(i32 noundef 1, ptr noundef nonnull %4) #15
  %7 = icmp slt i32 %6, 0
  br i1 %7, label %Abc_Clock.exit, label %8

8:                                                ; preds = %2
  %9 = load i64, ptr %4, align 8, !tbaa !3
  %.neg28 = mul i64 %9, -1000000
  %10 = getelementptr inbounds nuw i8, ptr %4, i64 8
  %11 = load i64, ptr %10, align 8, !tbaa !8
  %.neg = sdiv i64 %11, -1000
  %.neg29 = add i64 %.neg, %.neg28
  br label %Abc_Clock.exit

Abc_Clock.exit:                                   ; preds = %2, %8
  %.0.i.neg = phi i64 [ %.neg29, %8 ], [ 1, %2 ]
  call void @llvm.lifetime.end.p0(i64 16, ptr nonnull %4) #15
  %12 = getelementptr inbounds nuw i8, ptr %0, i64 64
  %13 = load ptr, ptr %12, align 8, !tbaa !9
  %14 = getelementptr inbounds nuw i8, ptr %13, i64 4
  %15 = load i32, ptr %14, align 4, !tbaa !21
  %16 = add nsw i32 %15, -5
  store i32 %16, ptr %5, align 4, !tbaa !30
  %17 = shl nsw i32 %16, 1
  %18 = sext i32 %17 to i64
  %19 = shl nsw i64 %18, 2
  %20 = call noalias ptr @malloc(i64 noundef %19) #17
  %21 = icmp sgt i32 %15, 5
  br i1 %21, label %.lr.ph, label %._crit_edge

.lr.ph:                                           ; preds = %Abc_Clock.exit
  %22 = getelementptr inbounds nuw i8, ptr %13, i64 8
  %23 = load ptr, ptr %22, align 8, !tbaa !23
  %invariant.gep = getelementptr inbounds nuw i8, ptr %23, i64 40
  %wide.trip.count = zext nneg i32 %16 to i64
  br label %24

24:                                               ; preds = %.lr.ph, %24
  %indvars.iv = phi i64 [ 0, %.lr.ph ], [ %indvars.iv.next, %24 ]
  %gep = getelementptr inbounds nuw ptr, ptr %invariant.gep, i64 %indvars.iv
  %25 = load ptr, ptr %gep, align 8, !tbaa !24
  %26 = getelementptr inbounds nuw i8, ptr %25, i64 24
  %27 = load ptr, ptr %26, align 8, !tbaa !25
  %28 = ptrtoint ptr %27 to i64
  %29 = and i64 %28, -2
  %30 = inttoptr i64 %29 to ptr
  %31 = load i32, ptr %30, align 8, !tbaa !29
  %32 = shl i32 %31, 1
  %33 = trunc i64 %28 to i32
  %34 = and i32 %33, 1
  %35 = or disjoint i32 %34, %32
  %36 = shl nuw nsw i64 %indvars.iv, 1
  %37 = getelementptr inbounds nuw i32, ptr %20, i64 %36
  %38 = getelementptr inbounds nuw i8, ptr %25, i64 32
  %39 = load ptr, ptr %38, align 8, !tbaa !31
  %40 = ptrtoint ptr %39 to i64
  %41 = and i64 %40, -2
  %42 = inttoptr i64 %41 to ptr
  %43 = load i32, ptr %42, align 8, !tbaa !29
  %44 = shl i32 %43, 1
  %45 = trunc i64 %40 to i32
  %46 = and i32 %45, 1
  %47 = or disjoint i32 %46, %44
  %48 = or disjoint i64 %36, 1
  %49 = getelementptr inbounds nuw i32, ptr %20, i64 %48
  store i32 %47, ptr %49, align 4, !tbaa !30
  %50 = getelementptr inbounds nuw i8, ptr %25, i64 14
  %51 = load i32, ptr %50, align 2
  %52 = call i32 @llvm.fshl.i32(i32 %35, i32 %51, i32 1)
  store i32 %52, ptr %37, align 4, !tbaa !30
  %indvars.iv.next = add nuw nsw i64 %indvars.iv, 1
  %exitcond.not = icmp eq i64 %indvars.iv.next, %wide.trip.count
  br i1 %exitcond.not, label %._crit_edge, label %24, !llvm.loop !42

._crit_edge:                                      ; preds = %24, %Abc_Clock.exit
  %53 = call noalias ptr @fopen(ptr noundef %1, ptr noundef nonnull @.str.14)
  %54 = call i64 @fwrite(ptr noundef nonnull %5, i64 noundef 4, i64 noundef 1, ptr noundef %53)
  %55 = load i32, ptr %5, align 4, !tbaa !30
  %56 = shl nsw i32 %55, 1
  %57 = sext i32 %56 to i64
  %58 = call i64 @fwrite(ptr noundef %20, i64 noundef 4, i64 noundef %57, ptr noundef %53)
  %.not = icmp eq ptr %20, null
  br i1 %.not, label %60, label %59

59:                                               ; preds = %._crit_edge
  call void @free(ptr noundef nonnull %20) #15
  br label %60

60:                                               ; preds = %._crit_edge, %59
  %61 = call i32 @fclose(ptr noundef %53)
  %62 = call i32 (ptr, ...) @printf(ptr noundef nonnull dereferenceable(1) @.str.7, i32 noundef %55)
  call void (i32, ptr, ...) @Abc_Print(i32 poison, ptr noundef nonnull @.str.8, ptr noundef nonnull @.str.9)
  call void @llvm.lifetime.start.p0(i64 16, ptr nonnull %3) #15
  %63 = call i32 @clock_gettime(i32 noundef 1, ptr noundef nonnull %3) #15
  %64 = icmp slt i32 %63, 0
  br i1 %64, label %Abc_Clock.exit27, label %65

65:                                               ; preds = %60
  %66 = load i64, ptr %3, align 8, !tbaa !3
  %67 = mul nsw i64 %66, 1000000
  %68 = getelementptr inbounds nuw i8, ptr %3, i64 8
  %69 = load i64, ptr %68, align 8, !tbaa !8
  %70 = sdiv i64 %69, 1000
  %71 = add nsw i64 %70, %67
  br label %Abc_Clock.exit27

Abc_Clock.exit27:                                 ; preds = %60, %65
  %.0.i26 = phi i64 [ %71, %65 ], [ -1, %60 ]
  call void @llvm.lifetime.end.p0(i64 16, ptr nonnull %3) #15
  %72 = add i64 %.0.i26, %.0.i.neg
  %73 = sitofp i64 %72 to double
  %74 = fdiv double %73, 1.000000e+06
  call void (i32, ptr, ...) @Abc_Print(i32 poison, ptr noundef nonnull @.str.10, double noundef %74)
  call void @llvm.lifetime.end.p0(i64 4, ptr nonnull %5) #15
  ret void
}